target datalayout = "e-m:e-p270:32:32-p271:32:32-p272:64:64-i64:64-i128:128-f80:128-n8:16:32:64-S128"
target triple = "x86_64-pc-linux-gnu"

%class.ByteViewTab = type <{ %class.QTabWidget, ptr, i8, [7 x i8], ptr, i8, [7 x i8] }>
%class.QTabWidget = type { %class.QWidget }
%class.QWidget = type { %class.QObject, %class.QPaintDevice.base, ptr }
%class.QObject = type { ptr, %class.QScopedPointer }
%class.QScopedPointer = type { ptr }
%class.QPaintDevice.base = type <{ ptr, i16 }>
%class.QVariant = type { %"struct.QVariant::Private" }
%"struct.QVariant::Private" = type { %union.anon, i64 }
%union.anon = type { ptr, [16 x i8] }
%struct.nstime_t = type { i64, i32 }
%struct.epan_dissect = type { ptr, ptr, ptr, %struct._packet_info }
%struct._packet_info = type { ptr, ptr, i32, i32, %struct.nstime_t, %struct.nstime_t, %struct.nstime_t, i32, ptr, ptr, ptr, ptr, %struct._address, %struct._address, %struct._address, %struct._address, %struct._address, %struct._address, i32, ptr, i32, %struct.anon.27, i32, i32, i32, i32, ptr, i32, ptr, ptr, i16, i16, i32, i32, i16, i32, i32, ptr, ptr, ptr, i8, i8, i16, i16, i16, i32, i16, i16, ptr, ptr, ptr, ptr, ptr, i32 }
%struct._address = type { i32, i32, ptr, ptr }
%struct.anon.27 = type { i8, [3 x i8] }
%class.FieldInformation = type { %class.QObject, %class.IDataPrintable, ptr, ptr }
%class.IDataPrintable = type { ptr }

@.str.12 = private unnamed_addr constant [18 x i8] c"tvb_data_property\00", align 1

; Function Attrs: mustprogress nounwind uwtable
define linkonce_odr void @_ZN14IDataPrintableD2Ev(ptr noundef nonnull align 8 dereferenceable(8) %0) unnamed_addr #2 comdat align 2 {
  %2 = alloca ptr, align 8
  store ptr %0, ptr %2, align 8
  ret void
}

; Function Attrs: mustprogress uwtable
define linkonce_odr noundef ptr @_ZNK8QVariant5valueIPvEET_v(ptr noundef nonnull align 8 dereferenceable(32) %0) #0 comdat align 2 {
  %2 = alloca ptr, align 8
  store ptr %0, ptr %2, align 8
  %3 = load ptr, ptr %2, align 8
  %4 = call noundef ptr @_Z13qvariant_castIPvET_RK8QVariant(ptr noundef nonnull align 8 dereferenceable(32) %3)
  ret ptr %4
}

; Function Attrs: mustprogress nounwind uwtable
define linkonce_odr void @_ZN16FieldInformationD2Ev(ptr noundef nonnull align 8 dereferenceable(40) %0) unnamed_addr #2 comdat align 2 {
  %2 = alloca ptr, align 8
  store ptr %0, ptr %2, align 8
  %3 = load ptr, ptr %2, align 8
  %4 = getelementptr inbounds i8, ptr %3, i64 16
  call void @_ZN14IDataPrintableD2Ev(ptr noundef nonnull align 8 dereferenceable(8) %4) #10
  call void @_ZN7QObjectD2Ev(ptr noundef nonnull align 8 dereferenceable(16) %3) #10
  ret void
}

; Function Attrs: mustprogress uwtable
define linkonce_odr noundef ptr @_ZN14VariantPointerI6tvbuffE5asPtrE8QVariant(ptr noundef %0) #0 comdat align 2 {
  %2 = alloca ptr, align 8
  store ptr %0, ptr %2, align 8
  %3 = call noundef ptr @_ZNK8QVariant5valueIPvEET_v(ptr noundef nonnull align 8 dereferenceable(32) %0)
  ret ptr %3
}

; Function Attrs: mustprogress uwtable
define void @_ZN11ByteViewTab18byteViewTextMarkedEi(ptr noundef nonnull align 8 dereferenceable(65) %0, i32 noundef %1) #0 align 2 personality ptr @__gxx_personality_v0 {
  %3 = alloca ptr, align 8
  %4 = alloca i32, align 4
  %5 = alloca ptr, align 8
  %6 = alloca %class.QVariant, align 8
  %7 = alloca ptr, align 8
  %8 = alloca i32, align 4
  %9 = alloca ptr, align 8
  %10 = alloca ptr, align 8
  %11 = alloca %class.FieldInformation, align 8
  store ptr %0, ptr %3, align 8
  store i32 %1, ptr %4, align 4
  %12 = load ptr, ptr %3, align 8
  %13 = load i32, ptr %4, align 4
  %14 = icmp sge i32 %13, 0
  br i1 %14, label %15, label %52

15:                                               ; preds = %2
  %16 = getelementptr inbounds %class.ByteViewTab, ptr %12, i32 0, i32 4
  %17 = load ptr, ptr %16, align 8
  %18 = icmp ne ptr %17, null
  br i1 %18, label %19, label %52

19:                                               ; preds = %15
  %20 = call noundef ptr @_ZNK7QObject6senderEv(ptr noundef nonnull align 8 dereferenceable(16) %12)
  call void @_ZNK7QObject8propertyEPKc(ptr dead_on_unwind writable sret(%class.QVariant) align 8 %6, ptr noundef nonnull align 8 dereferenceable(16) %20, ptr noundef @.str.12)
  %21 = invoke noundef ptr @_ZN14VariantPointerI6tvbuffE5asPtrE8QVariant(ptr noundef %6)
          to label %22 unwind label %42

22:                                               ; preds = %19
  call void @_ZN8QVariantD1Ev(ptr noundef nonnull align 8 dereferenceable(32) %6) #10
  store ptr %21, ptr %5, align 8
  %23 = getelementptr inbounds %class.ByteViewTab, ptr %12, i32 0, i32 4
  %24 = load ptr, ptr %23, align 8
  %25 = getelementptr inbounds %struct.epan_dissect, ptr %24, i32 0, i32 2
  %26 = load ptr, ptr %25, align 8
  store ptr %26, ptr %9, align 8
  %27 = load ptr, ptr %5, align 8
  %28 = icmp ne ptr %27, null
  br i1 %28, label %29, label %51

29:                                               ; preds = %22
  %30 = load ptr, ptr %9, align 8
  %31 = icmp ne ptr %30, null
  br i1 %31, label %32, label %51

32:                                               ; preds = %29
  %33 = load ptr, ptr %9, align 8
  %34 = load i32, ptr %4, align 4
  %35 = load ptr, ptr %5, align 8
  %36 = call ptr @proto_find_field_from_offset(ptr noundef %33, i32 noundef %34, ptr noundef %35)
  store ptr %36, ptr %10, align 8
  %37 = load ptr, ptr %10, align 8
  %38 = icmp ne ptr %37, null
  br i1 %38, label %39, label %50

39:                                               ; preds = %32
  %40 = load ptr, ptr %10, align 8
  call void @_ZN16FieldInformationC1EP10field_infoP7QObject(ptr noundef nonnull align 8 dereferenceable(40) %11, ptr noundef %40, ptr noundef %12)
  invoke void @_ZN11ByteViewTab13fieldSelectedEP16FieldInformation(ptr noundef nonnull align 8 dereferenceable(65) %12, ptr noundef %11)
          to label %41 unwind label %46

41:                                               ; preds = %39
  call void @_ZN16FieldInformationD2Ev(ptr noundef nonnull align 8 dereferenceable(40) %11) #10
  br label %53

42:                                               ; preds = %19
  %43 = landingpad { ptr, i32 }
          cleanup
  %44 = extractvalue { ptr, i32 } %43, 0
  store ptr %44, ptr %7, align 8
  %45 = extractvalue { ptr, i32 } %43, 1
  store i32 %45, ptr %8, align 4
  call void @_ZN8QVariantD1Ev(ptr noundef nonnull align 8 dereferenceable(32) %6) #10
  br label %54

46:                                               ; preds = %39
  %47 = landingpad { ptr, i32 }
          cleanup
  %48 = extractvalue { ptr, i32 } %47, 0
  store ptr %48, ptr %7, align 8
  %49 = extractvalue { ptr, i32 } %47, 1
  store i32 %49, ptr %8, align 4
  call void @_ZN16FieldInformationD2Ev(ptr noundef nonnull align 8 dereferenceable(40) %11) #10
  br label %54

50:                                               ; preds = %32
  br label %51

51:                                               ; preds = %50, %29, %22
  br label %52

52:                                               ; preds = %51, %15, %2
  call void @_ZN11ByteViewTab13fieldSelectedEP16FieldInformation(ptr noundef nonnull align 8 dereferenceable(65) %12, ptr noundef null)
  br label %53

53:                                               ; preds = %52, %41
  ret void

54:                                               ; preds = %46, %42
  %55 = load ptr, ptr %7, align 8
  %56 = load i32, ptr %8, align 4
  %57 = insertvalue { ptr, i32 } poison, ptr %55, 0
  %58 = insertvalue { ptr, i32 } %57, i32 %56, 1
  resume { ptr, i32 } %58
}